; Function Attrs: mustprogress nounwind uwtable
define hidden void @_ZN19OpenColorIO_v2_4dev25LegacyViewingPipelineImpl7DeleterEPNS_21LegacyViewingPipelineE(ptr noundef %vp) #3 align 2 {
entry:
  %isnull = icmp eq ptr %vp, null
  br i1 %isnull, label %delete.end, label %delete.notnull

delete.notnull:                                   ; preds = %entry
  %vtable = load ptr, ptr %vp, align 8
  %vfn = getelementptr inbounds i8, ptr %vtable, i64 136
  %0 = load ptr, ptr %vfn, align 8
  tail call void %0(ptr noundef nonnull align 8 dereferenceable(128) %vp) #16
  br label %delete.end

delete.end:                                       ; preds = %delete.notnull, %entry
  ret void
}